; Function Attrs: nounwind uwtable
define i32 @lv_circle_buf_remain(ptr noundef %0) local_unnamed_addr #0 {
  %.not = icmp eq ptr %0, null
  br i1 %.not, label %.preheader, label %lv_circle_buf_size.exit

.preheader:                                       ; preds = %1, %.preheader
  br label %.preheader

lv_circle_buf_size.exit:                          ; preds = %1
  %2 = tail call i32 @lv_array_capacity(ptr noundef nonnull %0) #6
  %3 = getelementptr inbounds nuw i8, ptr %0, i64 28
  %4 = load i32, ptr %3, align 4, !tbaa !12
  %5 = getelementptr inbounds nuw i8, ptr %0, i64 24
  %6 = load i32, ptr %5, align 8, !tbaa !3
  %.neg = sub i32 %2, %4
  %7 = add i32 %.neg, %6
  ret i32 %7
}